; Function Attrs: mustprogress uwtable
define hidden void @_ZN13expr_inverter19set_model_converterEP23generic_model_converter(ptr nocapture noundef nonnull align 8 dereferenceable(72) %this, ptr noundef %mc) unnamed_addr #6 align 2 {
entry:
  %m_mc = getelementptr inbounds i8, ptr %this, i64 48
  %tobool.not.i = icmp eq ptr %mc, null
  br i1 %tobool.not.i, label %if.end.i, label %if.then.i

if.then.i:                                        ; preds = %entry
  %m_ref_count.i.i = getelementptr inbounds i8, ptr %mc, i64 8
  %0 = load i32, ptr %m_ref_count.i.i, align 8
  %inc.i.i = add i32 %0, 1
  store i32 %inc.i.i, ptr %m_ref_count.i.i, align 8
  br label %if.end.i

if.end.i:                                         ; preds = %if.then.i, %entry
  %1 = load ptr, ptr %m_mc, align 8
  %tobool.not.i.i = icmp eq ptr %1, null
  br i1 %tobool.not.i.i, label %_ZN3refI23generic_model_converterEaSEPS0_.exit, label %if.then.i.i

if.then.i.i:                                      ; preds = %if.end.i
  %m_ref_count.i.i.i = getelementptr inbounds i8, ptr %1, i64 8
  %2 = load i32, ptr %m_ref_count.i.i.i, align 8
  %dec.i.i.i = add i32 %2, -1
  store i32 %dec.i.i.i, ptr %m_ref_count.i.i.i, align 8
  %cmp.i.i.i = icmp eq i32 %dec.i.i.i, 0
  br i1 %cmp.i.i.i, label %if.then.i.i.i, label %_ZN3refI23generic_model_converterEaSEPS0_.exit

if.then.i.i.i:                                    ; preds = %if.then.i.i
  %vtable.i.i.i.i = load ptr, ptr %1, align 8
  %3 = load ptr, ptr %vtable.i.i.i.i, align 8
  tail call void %3(ptr noundef nonnull align 8 dereferenceable(12) %1) #15
  tail call void @_ZN6memory10deallocateEPv(ptr noundef nonnull %1)
  br label %_ZN3refI23generic_model_converterEaSEPS0_.exit

_ZN3refI23generic_model_converterEaSEPS0_.exit:   ; preds = %if.end.i, %if.then.i.i, %if.then.i.i.i
  store ptr %mc, ptr %m_mc, align 8
  %m_inverters = getelementptr inbounds i8, ptr %this, i64 64
  %4 = load ptr, ptr %m_inverters, align 8
  %cmp.i.i = icmp eq ptr %4, null
  br i1 %cmp.i.i, label %for.end, label %_ZN6vectorIP14iexpr_inverterLb0EjE3endEv.exit

_ZN6vectorIP14iexpr_inverterLb0EjE3endEv.exit:    ; preds = %_ZN3refI23generic_model_converterEaSEPS0_.exit
  %arrayidx.i.i = getelementptr inbounds i8, ptr %4, i64 -4
  %5 = load i32, ptr %arrayidx.i.i, align 4
  %6 = zext i32 %5 to i64
  %add.ptr.i = getelementptr inbounds ptr, ptr %4, i64 %6
  %cmp.not6 = icmp eq i32 %5, 0
  br i1 %cmp.not6, label %for.end, label %for.body

for.body:                                         ; preds = %_ZN6vectorIP14iexpr_inverterLb0EjE3endEv.exit, %for.inc
  %__begin1.07 = phi ptr [ %incdec.ptr, %for.inc ], [ %4, %_ZN6vectorIP14iexpr_inverterLb0EjE3endEv.exit ]
  %7 = load ptr, ptr %__begin1.07, align 8
  %tobool.not = icmp eq ptr %7, null
  br i1 %tobool.not, label %for.inc, label %if.then

if.then:                                          ; preds = %for.body
  %vtable = load ptr, ptr %7, align 8
  %vfn = getelementptr inbounds i8, ptr %vtable, i64 24
  %8 = load ptr, ptr %vfn, align 8
  tail call void %8(ptr noundef nonnull align 8 dereferenceable(57) %7, ptr noundef %mc)
  br label %for.inc

for.inc:                                          ; preds = %for.body, %if.then
  %incdec.ptr = getelementptr inbounds i8, ptr %__begin1.07, i64 8
  %cmp.not = icmp eq ptr %incdec.ptr, %add.ptr.i
  br i1 %cmp.not, label %for.end, label %for.body

for.end:                                          ; preds = %for.inc, %_ZN3refI23generic_model_converterEaSEPS0_.exit, %_ZN6vectorIP14iexpr_inverterLb0EjE3endEv.exit
  ret void
}